; Function Attrs: mustprogress uwtable
define noundef ptr @grpc_ssl_server_credentials_create_with_options(ptr noundef %0) local_unnamed_addr #3 personality ptr @__gxx_personality_v0 {
  %2 = alloca %"class.absl::lts_20240722::log_internal::LogMessage", align 8
  %3 = alloca %"class.absl::lts_20240722::log_internal::LogMessage", align 8
  %4 = alloca %"class.absl::lts_20240722::log_internal::LogMessage", align 8
  %5 = icmp eq ptr %0, null
  br i1 %5, label %6, label %9

6:                                                ; preds = %1
  call void @llvm.lifetime.start.p0(i64 16, ptr nonnull %2) #28
  call void @_ZN4absl12lts_2024072212log_internal10LogMessageC1EPKciNS2_8ErrorTagE(ptr noundef nonnull align 8 dereferenceable(16) %2, ptr noundef nonnull @.str, i32 noundef 446) #29
  invoke void @_ZN4absl12lts_2024072212log_internal10LogMessage19CopyToEncodedBufferILNS2_10StringTypeE0EEEvSt17basic_string_viewIcSt11char_traitsIcEE(ptr noundef nonnull align 8 dereferenceable(16) %2, i64 56, ptr nonnull @.str.27)
          to label %_ZN4absl12lts_2024072212log_internal10LogMessagelsILi57EEERS2_RAT__Kc.exit unwind label %7

_ZN4absl12lts_2024072212log_internal10LogMessagelsILi57EEERS2_RAT__Kc.exit: ; preds = %6
  call void @_ZN4absl12lts_2024072212log_internal10LogMessageD1Ev(ptr noundef nonnull align 8 dereferenceable(16) %2) #30
  call void @llvm.lifetime.end.p0(i64 16, ptr nonnull %2) #28
  br label %28

7:                                                ; preds = %6
  %8 = landingpad { ptr, i32 }
          cleanup
  call void @_ZN4absl12lts_2024072212log_internal10LogMessageD1Ev(ptr noundef nonnull align 8 dereferenceable(16) %2) #30
  call void @llvm.lifetime.end.p0(i64 16, ptr nonnull %2) #28
  br label %31

9:                                                ; preds = %1
  %10 = getelementptr inbounds nuw i8, ptr %0, i64 8
  %11 = load ptr, ptr %10, align 8, !tbaa !123
  %12 = icmp eq ptr %11, null
  %13 = getelementptr inbounds nuw i8, ptr %0, i64 16
  %14 = load ptr, ptr %13, align 8, !tbaa !112
  %15 = icmp eq ptr %14, null
  br i1 %12, label %16, label %20

16:                                               ; preds = %9
  br i1 %15, label %17, label %.thread

17:                                               ; preds = %16
  call void @llvm.lifetime.start.p0(i64 16, ptr nonnull %3) #28
  call void @_ZN4absl12lts_2024072212log_internal10LogMessageC1EPKciNS2_8ErrorTagE(ptr noundef nonnull align 8 dereferenceable(16) %3, ptr noundef nonnull @.str, i32 noundef 452) #29
  invoke void @_ZN4absl12lts_2024072212log_internal10LogMessage19CopyToEncodedBufferILNS2_10StringTypeE0EEEvSt17basic_string_viewIcSt11char_traitsIcEE(ptr noundef nonnull align 8 dereferenceable(16) %3, i64 81, ptr nonnull @.str.28)
          to label %_ZN4absl12lts_2024072212log_internal10LogMessagelsILi82EEERS2_RAT__Kc.exit unwind label %18

_ZN4absl12lts_2024072212log_internal10LogMessagelsILi82EEERS2_RAT__Kc.exit: ; preds = %17
  call void @_ZN4absl12lts_2024072212log_internal10LogMessageD1Ev(ptr noundef nonnull align 8 dereferenceable(16) %3) #30
  call void @llvm.lifetime.end.p0(i64 16, ptr nonnull %3) #28
  br label %28

18:                                               ; preds = %17
  %19 = landingpad { ptr, i32 }
          cleanup
  call void @_ZN4absl12lts_2024072212log_internal10LogMessageD1Ev(ptr noundef nonnull align 8 dereferenceable(16) %3) #30
  call void @llvm.lifetime.end.p0(i64 16, ptr nonnull %3) #28
  br label %31

20:                                               ; preds = %9
  br i1 %15, label %26, label %.thread

.thread:                                          ; preds = %16, %20
  %21 = load ptr, ptr %14, align 8, !tbaa !110
  %22 = icmp eq ptr %21, null
  br i1 %22, label %23, label %26

23:                                               ; preds = %.thread
  call void @llvm.lifetime.start.p0(i64 16, ptr nonnull %4) #28
  call void @_ZN4absl12lts_2024072212log_internal10LogMessageC1EPKciNS2_8ErrorTagE(ptr noundef nonnull align 8 dereferenceable(16) %4, ptr noundef nonnull @.str, i32 noundef 457) #29
  invoke void @_ZN4absl12lts_2024072212log_internal10LogMessage19CopyToEncodedBufferILNS2_10StringTypeE0EEEvSt17basic_string_viewIcSt11char_traitsIcEE(ptr noundef nonnull align 8 dereferenceable(16) %4, i64 53, ptr nonnull @.str.29)
          to label %_ZN4absl12lts_2024072212log_internal10LogMessagelsILi54EEERS2_RAT__Kc.exit unwind label %24

_ZN4absl12lts_2024072212log_internal10LogMessagelsILi54EEERS2_RAT__Kc.exit: ; preds = %23
  call void @_ZN4absl12lts_2024072212log_internal10LogMessageD1Ev(ptr noundef nonnull align 8 dereferenceable(16) %4) #30
  call void @llvm.lifetime.end.p0(i64 16, ptr nonnull %4) #28
  br label %28

24:                                               ; preds = %23
  %25 = landingpad { ptr, i32 }
          cleanup
  call void @_ZN4absl12lts_2024072212log_internal10LogMessageD1Ev(ptr noundef nonnull align 8 dereferenceable(16) %4) #30
  call void @llvm.lifetime.end.p0(i64 16, ptr nonnull %4) #28
  br label %31

26:                                               ; preds = %20, %.thread
  %27 = tail call noalias noundef nonnull dereferenceable(96) ptr @_Znwm(i64 noundef 96) #33
  invoke void @_ZN27grpc_ssl_server_credentialsC1ERK35grpc_ssl_server_credentials_options(ptr noundef nonnull align 8 dereferenceable(96) %27, ptr noundef nonnull align 8 dereferenceable(24) %0)
          to label %28 unwind label %29

28:                                               ; preds = %26, %_ZN4absl12lts_2024072212log_internal10LogMessagelsILi54EEERS2_RAT__Kc.exit, %_ZN4absl12lts_2024072212log_internal10LogMessagelsILi82EEERS2_RAT__Kc.exit, %_ZN4absl12lts_2024072212log_internal10LogMessagelsILi57EEERS2_RAT__Kc.exit
  %.010 = phi ptr [ null, %_ZN4absl12lts_2024072212log_internal10LogMessagelsILi57EEERS2_RAT__Kc.exit ], [ null, %_ZN4absl12lts_2024072212log_internal10LogMessagelsILi82EEERS2_RAT__Kc.exit ], [ null, %_ZN4absl12lts_2024072212log_internal10LogMessagelsILi54EEERS2_RAT__Kc.exit ], [ %27, %26 ]
  call void @grpc_ssl_server_credentials_options_destroy(ptr noundef %0)
  ret ptr %.010

29:                                               ; preds = %26
  %30 = landingpad { ptr, i32 }
          cleanup
  tail call void @_ZdlPvm(ptr noundef nonnull %27, i64 noundef 96) #32
  br label %31

31:                                               ; preds = %29, %24, %18, %7
  %.pn = phi { ptr, i32 } [ %8, %7 ], [ %19, %18 ], [ %25, %24 ], [ %30, %29 ]
  resume { ptr, i32 } %.pn
}